target datalayout = "e-m:e-p270:32:32-p271:32:32-p272:64:64-i64:64-i128:128-f80:128-n8:16:32:64-S128"
target triple = "x86_64-pc-linux-gnu"

%struct.SwsFilterDescriptor = type { ptr, ptr, i32, ptr, ptr }
%struct.VScalerContext = type { [2 x ptr], ptr, i32, i32, %union.anon, ptr }
%union.anon = type { ptr }
%struct.SwsSlice = type { i32, i32, i32, i32, i32, i32, [4 x %struct.SwsPlane] }
%struct.SwsPlane = type { i32, i32, i32, ptr, ptr }

; Function Attrs: nounwind uwtable
define internal i32 @any_vscale(ptr noundef %0, ptr noundef %1, i32 noundef %2, i32 noundef %3) #0 {
  %5 = alloca ptr, align 8
  %6 = alloca ptr, align 8
  %7 = alloca i32, align 4
  %8 = alloca i32, align 4
  %9 = alloca ptr, align 8
  %10 = alloca i32, align 4
  %11 = alloca i32, align 4
  %12 = alloca i32, align 4
  %13 = alloca i32, align 4
  %14 = alloca ptr, align 8
  %15 = alloca ptr, align 8
  %16 = alloca i32, align 4
  %17 = alloca i32, align 4
  %18 = alloca i32, align 4
  %19 = alloca i32, align 4
  %20 = alloca i32, align 4
  %21 = alloca i32, align 4
  %22 = alloca i32, align 4
  %23 = alloca i32, align 4
  %24 = alloca i32, align 4
  %25 = alloca i32, align 4
  %26 = alloca ptr, align 8
  %27 = alloca ptr, align 8
  %28 = alloca ptr, align 8
  %29 = alloca ptr, align 8
  %30 = alloca [4 x ptr], align 16
  store ptr %0, ptr %5, align 8, !tbaa !4
  store ptr %1, ptr %6, align 8, !tbaa !9
  store i32 %2, ptr %7, align 4, !tbaa !48
  store i32 %3, ptr %8, align 4, !tbaa !48
  call void @llvm.lifetime.start.p0(i64 8, ptr %9) #6
  %31 = load ptr, ptr %6, align 8, !tbaa !9
  %32 = getelementptr inbounds nuw %struct.SwsFilterDescriptor, ptr %31, i32 0, i32 3
  %33 = load ptr, ptr %32, align 8, !tbaa !35
  store ptr %33, ptr %9, align 8, !tbaa !13
  call void @llvm.lifetime.start.p0(i64 4, ptr %10) #6
  %34 = load ptr, ptr %6, align 8, !tbaa !9
  %35 = getelementptr inbounds nuw %struct.SwsFilterDescriptor, ptr %34, i32 0, i32 1
  %36 = load ptr, ptr %35, align 8, !tbaa !37
  %37 = getelementptr inbounds nuw %struct.SwsSlice, ptr %36, i32 0, i32 0
  %38 = load i32, ptr %37, align 8, !tbaa !54
  store i32 %38, ptr %10, align 4, !tbaa !48
  call void @llvm.lifetime.start.p0(i64 4, ptr %11) #6
  %39 = load i32, ptr %7, align 4, !tbaa !48
  %40 = load ptr, ptr %6, align 8, !tbaa !9
  %41 = getelementptr inbounds nuw %struct.SwsFilterDescriptor, ptr %40, i32 0, i32 1
  %42 = load ptr, ptr %41, align 8, !tbaa !37
  %43 = getelementptr inbounds nuw %struct.SwsSlice, ptr %42, i32 0, i32 2
  %44 = load i32, ptr %43, align 8, !tbaa !69
  %45 = ashr i32 %39, %44
  store i32 %45, ptr %11, align 4, !tbaa !48
  call void @llvm.lifetime.start.p0(i64 4, ptr %12) #6
  %46 = load ptr, ptr %9, align 8, !tbaa !13
  %47 = getelementptr inbounds %struct.VScalerContext, ptr %46, i64 0
  %48 = getelementptr inbounds nuw %struct.VScalerContext, ptr %47, i32 0, i32 2
  %49 = load i32, ptr %48, align 8, !tbaa !56
  store i32 %49, ptr %12, align 4, !tbaa !48
  call void @llvm.lifetime.start.p0(i64 4, ptr %13) #6
  %50 = load ptr, ptr %9, align 8, !tbaa !13
  %51 = getelementptr inbounds %struct.VScalerContext, ptr %50, i64 1
  %52 = getelementptr inbounds nuw %struct.VScalerContext, ptr %51, i32 0, i32 2
  %53 = load i32, ptr %52, align 8, !tbaa !56
  store i32 %53, ptr %13, align 4, !tbaa !48
  call void @llvm.lifetime.start.p0(i64 8, ptr %14) #6
  %54 = load ptr, ptr %9, align 8, !tbaa !13
  %55 = getelementptr inbounds %struct.VScalerContext, ptr %54, i64 0
  %56 = getelementptr inbounds nuw %struct.VScalerContext, ptr %55, i32 0, i32 0
  %57 = getelementptr inbounds [2 x ptr], ptr %56, i64 0, i64 0
  %58 = load ptr, ptr %57, align 8, !tbaa !64
  store ptr %58, ptr %14, align 8, !tbaa !64
  call void @llvm.lifetime.start.p0(i64 8, ptr %15) #6
  %59 = load ptr, ptr %9, align 8, !tbaa !13
  %60 = getelementptr inbounds %struct.VScalerContext, ptr %59, i64 1
  %61 = getelementptr inbounds nuw %struct.VScalerContext, ptr %60, i32 0, i32 0
  %62 = getelementptr inbounds [2 x ptr], ptr %61, i64 0, i64 0
  %63 = load ptr, ptr %62, align 8, !tbaa !64
  store ptr %63, ptr %15, align 8, !tbaa !64
  call void @llvm.lifetime.start.p0(i64 4, ptr %16) #6
  %64 = load i32, ptr %12, align 4, !tbaa !48
  %65 = sub nsw i32 1, %64
  %66 = load ptr, ptr %9, align 8, !tbaa !13
  %67 = getelementptr inbounds %struct.VScalerContext, ptr %66, i64 0
  %68 = getelementptr inbounds nuw %struct.VScalerContext, ptr %67, i32 0, i32 1
  %69 = load ptr, ptr %68, align 8, !tbaa !58
  %70 = load i32, ptr %7, align 4, !tbaa !48
  %71 = sext i32 %70 to i64
  %72 = getelementptr inbounds i32, ptr %69, i64 %71
  %73 = load i32, ptr %72, align 4, !tbaa !48
  %74 = icmp sgt i32 %65, %73
  br i1 %74, label %75, label %78

75:                                               ; preds = %4
  %76 = load i32, ptr %12, align 4, !tbaa !48
  %77 = sub nsw i32 1, %76
  br label %87

78:                                               ; preds = %4
  %79 = load ptr, ptr %9, align 8, !tbaa !13
  %80 = getelementptr inbounds %struct.VScalerContext, ptr %79, i64 0
  %81 = getelementptr inbounds nuw %struct.VScalerContext, ptr %80, i32 0, i32 1
  %82 = load ptr, ptr %81, align 8, !tbaa !58
  %83 = load i32, ptr %7, align 4, !tbaa !48
  %84 = sext i32 %83 to i64
  %85 = getelementptr inbounds i32, ptr %82, i64 %84
  %86 = load i32, ptr %85, align 4, !tbaa !48
  br label %87

87:                                               ; preds = %78, %75
  %88 = phi i32 [ %77, %75 ], [ %86, %78 ]
  store i32 %88, ptr %16, align 4, !tbaa !48
  call void @llvm.lifetime.start.p0(i64 4, ptr %17) #6
  %89 = load i32, ptr %13, align 4, !tbaa !48
  %90 = sub nsw i32 1, %89
  %91 = load ptr, ptr %9, align 8, !tbaa !13
  %92 = getelementptr inbounds %struct.VScalerContext, ptr %91, i64 1
  %93 = getelementptr inbounds nuw %struct.VScalerContext, ptr %92, i32 0, i32 1
  %94 = load ptr, ptr %93, align 8, !tbaa !58
  %95 = load i32, ptr %11, align 4, !tbaa !48
  %96 = sext i32 %95 to i64
  %97 = getelementptr inbounds i32, ptr %94, i64 %96
  %98 = load i32, ptr %97, align 4, !tbaa !48
  %99 = icmp sgt i32 %90, %98
  br i1 %99, label %100, label %103

100:                                              ; preds = %87
  %101 = load i32, ptr %13, align 4, !tbaa !48
  %102 = sub nsw i32 1, %101
  br label %112

103:                                              ; preds = %87
  %104 = load ptr, ptr %9, align 8, !tbaa !13
  %105 = getelementptr inbounds %struct.VScalerContext, ptr %104, i64 1
  %106 = getelementptr inbounds nuw %struct.VScalerContext, ptr %105, i32 0, i32 1
  %107 = load ptr, ptr %106, align 8, !tbaa !58
  %108 = load i32, ptr %11, align 4, !tbaa !48
  %109 = sext i32 %108 to i64
  %110 = getelementptr inbounds i32, ptr %107, i64 %109
  %111 = load i32, ptr %110, align 4, !tbaa !48
  br label %112

112:                                              ; preds = %103, %100
  %113 = phi i32 [ %102, %100 ], [ %111, %103 ]
  store i32 %113, ptr %17, align 4, !tbaa !48
  call void @llvm.lifetime.start.p0(i64 4, ptr %18) #6
  %114 = load i32, ptr %16, align 4, !tbaa !48
  %115 = load ptr, ptr %6, align 8, !tbaa !9
  %116 = getelementptr inbounds nuw %struct.SwsFilterDescriptor, ptr %115, i32 0, i32 0
  %117 = load ptr, ptr %116, align 8, !tbaa !36
  %118 = getelementptr inbounds nuw %struct.SwsSlice, ptr %117, i32 0, i32 6
  %119 = getelementptr inbounds [4 x %struct.SwsPlane], ptr %118, i64 0, i64 0
  %120 = getelementptr inbounds nuw %struct.SwsPlane, ptr %119, i32 0, i32 1
  %121 = load i32, ptr %120, align 4, !tbaa !59
  %122 = sub nsw i32 %114, %121
  store i32 %122, ptr %18, align 4, !tbaa !48
  call void @llvm.lifetime.start.p0(i64 4, ptr %19) #6
  %123 = load i32, ptr %17, align 4, !tbaa !48
  %124 = load ptr, ptr %6, align 8, !tbaa !9
  %125 = getelementptr inbounds nuw %struct.SwsFilterDescriptor, ptr %124, i32 0, i32 0
  %126 = load ptr, ptr %125, align 8, !tbaa !36
  %127 = getelementptr inbounds nuw %struct.SwsSlice, ptr %126, i32 0, i32 6
  %128 = getelementptr inbounds [4 x %struct.SwsPlane], ptr %127, i64 0, i64 1
  %129 = getelementptr inbounds nuw %struct.SwsPlane, ptr %128, i32 0, i32 1
  %130 = load i32, ptr %129, align 4, !tbaa !59
  %131 = sub nsw i32 %123, %130
  store i32 %131, ptr %19, align 4, !tbaa !48
  call void @llvm.lifetime.start.p0(i64 4, ptr %20) #6
  %132 = load i32, ptr %17, align 4, !tbaa !48
  %133 = load ptr, ptr %6, align 8, !tbaa !9
  %134 = getelementptr inbounds nuw %struct.SwsFilterDescriptor, ptr %133, i32 0, i32 0
  %135 = load ptr, ptr %134, align 8, !tbaa !36
  %136 = getelementptr inbounds nuw %struct.SwsSlice, ptr %135, i32 0, i32 6
  %137 = getelementptr inbounds [4 x %struct.SwsPlane], ptr %136, i64 0, i64 2
  %138 = getelementptr inbounds nuw %struct.SwsPlane, ptr %137, i32 0, i32 1
  %139 = load i32, ptr %138, align 4, !tbaa !59
  %140 = sub nsw i32 %132, %139
  store i32 %140, ptr %20, align 4, !tbaa !48
  call void @llvm.lifetime.start.p0(i64 4, ptr %21) #6
  %141 = load i32, ptr %16, align 4, !tbaa !48
  %142 = load ptr, ptr %6, align 8, !tbaa !9
  %143 = getelementptr inbounds nuw %struct.SwsFilterDescriptor, ptr %142, i32 0, i32 0
  %144 = load ptr, ptr %143, align 8, !tbaa !36
  %145 = getelementptr inbounds nuw %struct.SwsSlice, ptr %144, i32 0, i32 6
  %146 = getelementptr inbounds [4 x %struct.SwsPlane], ptr %145, i64 0, i64 3
  %147 = getelementptr inbounds nuw %struct.SwsPlane, ptr %146, i32 0, i32 1
  %148 = load i32, ptr %147, align 4, !tbaa !59
  %149 = sub nsw i32 %141, %148
  store i32 %149, ptr %21, align 4, !tbaa !48
  call void @llvm.lifetime.start.p0(i64 4, ptr %22) #6
  %150 = load i32, ptr %7, align 4, !tbaa !48
  %151 = load ptr, ptr %6, align 8, !tbaa !9
  %152 = getelementptr inbounds nuw %struct.SwsFilterDescriptor, ptr %151, i32 0, i32 1
  %153 = load ptr, ptr %152, align 8, !tbaa !37
  %154 = getelementptr inbounds nuw %struct.SwsSlice, ptr %153, i32 0, i32 6
  %155 = getelementptr inbounds [4 x %struct.SwsPlane], ptr %154, i64 0, i64 0
  %156 = getelementptr inbounds nuw %struct.SwsPlane, ptr %155, i32 0, i32 1
  %157 = load i32, ptr %156, align 4, !tbaa !59
  %158 = sub nsw i32 %150, %157
  store i32 %158, ptr %22, align 4, !tbaa !48
  call void @llvm.lifetime.start.p0(i64 4, ptr %23) #6
  %159 = load i32, ptr %11, align 4, !tbaa !48
  %160 = load ptr, ptr %6, align 8, !tbaa !9
  %161 = getelementptr inbounds nuw %struct.SwsFilterDescriptor, ptr %160, i32 0, i32 1
  %162 = load ptr, ptr %161, align 8, !tbaa !37
  %163 = getelementptr inbounds nuw %struct.SwsSlice, ptr %162, i32 0, i32 6
  %164 = getelementptr inbounds [4 x %struct.SwsPlane], ptr %163, i64 0, i64 1
  %165 = getelementptr inbounds nuw %struct.SwsPlane, ptr %164, i32 0, i32 1
  %166 = load i32, ptr %165, align 4, !tbaa !59
  %167 = sub nsw i32 %159, %166
  store i32 %167, ptr %23, align 4, !tbaa !48
  call void @llvm.lifetime.start.p0(i64 4, ptr %24) #6
  %168 = load i32, ptr %11, align 4, !tbaa !48
  %169 = load ptr, ptr %6, align 8, !tbaa !9
  %170 = getelementptr inbounds nuw %struct.SwsFilterDescriptor, ptr %169, i32 0, i32 1
  %171 = load ptr, ptr %170, align 8, !tbaa !37
  %172 = getelementptr inbounds nuw %struct.SwsSlice, ptr %171, i32 0, i32 6
  %173 = getelementptr inbounds [4 x %struct.SwsPlane], ptr %172, i64 0, i64 2
  %174 = getelementptr inbounds nuw %struct.SwsPlane, ptr %173, i32 0, i32 1
  %175 = load i32, ptr %174, align 4, !tbaa !59
  %176 = sub nsw i32 %168, %175
  store i32 %176, ptr %24, align 4, !tbaa !48
  call void @llvm.lifetime.start.p0(i64 4, ptr %25) #6
  %177 = load i32, ptr %7, align 4, !tbaa !48
  %178 = load ptr, ptr %6, align 8, !tbaa !9
  %179 = getelementptr inbounds nuw %struct.SwsFilterDescriptor, ptr %178, i32 0, i32 1
  %180 = load ptr, ptr %179, align 8, !tbaa !37
  %181 = getelementptr inbounds nuw %struct.SwsSlice, ptr %180, i32 0, i32 6
  %182 = getelementptr inbounds [4 x %struct.SwsPlane], ptr %181, i64 0, i64 3
  %183 = getelementptr inbounds nuw %struct.SwsPlane, ptr %182, i32 0, i32 1
  %184 = load i32, ptr %183, align 4, !tbaa !59
  %185 = sub nsw i32 %177, %184
  store i32 %185, ptr %25, align 4, !tbaa !48
  call void @llvm.lifetime.start.p0(i64 8, ptr %26) #6
  %186 = load ptr, ptr %6, align 8, !tbaa !9
  %187 = getelementptr inbounds nuw %struct.SwsFilterDescriptor, ptr %186, i32 0, i32 0
  %188 = load ptr, ptr %187, align 8, !tbaa !36
  %189 = getelementptr inbounds nuw %struct.SwsSlice, ptr %188, i32 0, i32 6
  %190 = getelementptr inbounds [4 x %struct.SwsPlane], ptr %189, i64 0, i64 0
  %191 = getelementptr inbounds nuw %struct.SwsPlane, ptr %190, i32 0, i32 3
  %192 = load ptr, ptr %191, align 8, !tbaa !62
  %193 = load i32, ptr %18, align 4, !tbaa !48
  %194 = sext i32 %193 to i64
  %195 = getelementptr inbounds ptr, ptr %192, i64 %194
  store ptr %195, ptr %26, align 8, !tbaa !63
  call void @llvm.lifetime.start.p0(i64 8, ptr %27) #6
  %196 = load ptr, ptr %6, align 8, !tbaa !9
  %197 = getelementptr inbounds nuw %struct.SwsFilterDescriptor, ptr %196, i32 0, i32 0
  %198 = load ptr, ptr %197, align 8, !tbaa !36
  %199 = getelementptr inbounds nuw %struct.SwsSlice, ptr %198, i32 0, i32 6
  %200 = getelementptr inbounds [4 x %struct.SwsPlane], ptr %199, i64 0, i64 1
  %201 = getelementptr inbounds nuw %struct.SwsPlane, ptr %200, i32 0, i32 3
  %202 = load ptr, ptr %201, align 8, !tbaa !62
  %203 = load i32, ptr %19, align 4, !tbaa !48
  %204 = sext i32 %203 to i64
  %205 = getelementptr inbounds ptr, ptr %202, i64 %204
  store ptr %205, ptr %27, align 8, !tbaa !63
  call void @llvm.lifetime.start.p0(i64 8, ptr %28) #6
  %206 = load ptr, ptr %6, align 8, !tbaa !9
  %207 = getelementptr inbounds nuw %struct.SwsFilterDescriptor, ptr %206, i32 0, i32 0
  %208 = load ptr, ptr %207, align 8, !tbaa !36
  %209 = getelementptr inbounds nuw %struct.SwsSlice, ptr %208, i32 0, i32 6
  %210 = getelementptr inbounds [4 x %struct.SwsPlane], ptr %209, i64 0, i64 2
  %211 = getelementptr inbounds nuw %struct.SwsPlane, ptr %210, i32 0, i32 3
  %212 = load ptr, ptr %211, align 8, !tbaa !62
  %213 = load i32, ptr %20, align 4, !tbaa !48
  %214 = sext i32 %213 to i64
  %215 = getelementptr inbounds ptr, ptr %212, i64 %214
  store ptr %215, ptr %28, align 8, !tbaa !63
  call void @llvm.lifetime.start.p0(i64 8, ptr %29) #6
  %216 = load ptr, ptr %6, align 8, !tbaa !9
  %217 = getelementptr inbounds nuw %struct.SwsFilterDescriptor, ptr %216, i32 0, i32 2
  %218 = load i32, ptr %217, align 8, !tbaa !39
  %219 = icmp ne i32 %218, 0
  br i1 %219, label %220, label %231

220:                                              ; preds = %112
  %221 = load ptr, ptr %6, align 8, !tbaa !9
  %222 = getelementptr inbounds nuw %struct.SwsFilterDescriptor, ptr %221, i32 0, i32 0
  %223 = load ptr, ptr %222, align 8, !tbaa !36
  %224 = getelementptr inbounds nuw %struct.SwsSlice, ptr %223, i32 0, i32 6
  %225 = getelementptr inbounds [4 x %struct.SwsPlane], ptr %224, i64 0, i64 3
  %226 = getelementptr inbounds nuw %struct.SwsPlane, ptr %225, i32 0, i32 3
  %227 = load ptr, ptr %226, align 8, !tbaa !62
  %228 = load i32, ptr %21, align 4, !tbaa !48
  %229 = sext i32 %228 to i64
  %230 = getelementptr inbounds ptr, ptr %227, i64 %229
  br label %232

231:                                              ; preds = %112
  br label %232

232:                                              ; preds = %231, %220
  %233 = phi ptr [ %230, %220 ], [ null, %231 ]
  store ptr %233, ptr %29, align 8, !tbaa !63
  call void @llvm.lifetime.start.p0(i64 32, ptr %30) #6
  %234 = load ptr, ptr %6, align 8, !tbaa !9
  %235 = getelementptr inbounds nuw %struct.SwsFilterDescriptor, ptr %234, i32 0, i32 1
  %236 = load ptr, ptr %235, align 8, !tbaa !37
  %237 = getelementptr inbounds nuw %struct.SwsSlice, ptr %236, i32 0, i32 6
  %238 = getelementptr inbounds [4 x %struct.SwsPlane], ptr %237, i64 0, i64 0
  %239 = getelementptr inbounds nuw %struct.SwsPlane, ptr %238, i32 0, i32 3
  %240 = load ptr, ptr %239, align 8, !tbaa !62
  %241 = load i32, ptr %22, align 4, !tbaa !48
  %242 = sext i32 %241 to i64
  %243 = getelementptr inbounds ptr, ptr %240, i64 %242
  %244 = load ptr, ptr %243, align 8, !tbaa !67
  store ptr %244, ptr %30, align 8, !tbaa !67
  %245 = getelementptr inbounds ptr, ptr %30, i64 1
  %246 = load ptr, ptr %6, align 8, !tbaa !9
  %247 = getelementptr inbounds nuw %struct.SwsFilterDescriptor, ptr %246, i32 0, i32 1
  %248 = load ptr, ptr %247, align 8, !tbaa !37
  %249 = getelementptr inbounds nuw %struct.SwsSlice, ptr %248, i32 0, i32 6
  %250 = getelementptr inbounds [4 x %struct.SwsPlane], ptr %249, i64 0, i64 1
  %251 = getelementptr inbounds nuw %struct.SwsPlane, ptr %250, i32 0, i32 3
  %252 = load ptr, ptr %251, align 8, !tbaa !62
  %253 = load i32, ptr %23, align 4, !tbaa !48
  %254 = sext i32 %253 to i64
  %255 = getelementptr inbounds ptr, ptr %252, i64 %254
  %256 = load ptr, ptr %255, align 8, !tbaa !67
  store ptr %256, ptr %245, align 8, !tbaa !67
  %257 = getelementptr inbounds ptr, ptr %30, i64 2
  %258 = load ptr, ptr %6, align 8, !tbaa !9
  %259 = getelementptr inbounds nuw %struct.SwsFilterDescriptor, ptr %258, i32 0, i32 1
  %260 = load ptr, ptr %259, align 8, !tbaa !37
  %261 = getelementptr inbounds nuw %struct.SwsSlice, ptr %260, i32 0, i32 6
  %262 = getelementptr inbounds [4 x %struct.SwsPlane], ptr %261, i64 0, i64 2
  %263 = getelementptr inbounds nuw %struct.SwsPlane, ptr %262, i32 0, i32 3
  %264 = load ptr, ptr %263, align 8, !tbaa !62
  %265 = load i32, ptr %24, align 4, !tbaa !48
  %266 = sext i32 %265 to i64
  %267 = getelementptr inbounds ptr, ptr %264, i64 %266
  %268 = load ptr, ptr %267, align 8, !tbaa !67
  store ptr %268, ptr %257, align 8, !tbaa !67
  %269 = getelementptr inbounds ptr, ptr %30, i64 3
  %270 = load ptr, ptr %6, align 8, !tbaa !9
  %271 = getelementptr inbounds nuw %struct.SwsFilterDescriptor, ptr %270, i32 0, i32 2
  %272 = load i32, ptr %271, align 8, !tbaa !39
  %273 = icmp ne i32 %272, 0
  br i1 %273, label %274, label %286

274:                                              ; preds = %232
  %275 = load ptr, ptr %6, align 8, !tbaa !9
  %276 = getelementptr inbounds nuw %struct.SwsFilterDescriptor, ptr %275, i32 0, i32 1
  %277 = load ptr, ptr %276, align 8, !tbaa !37
  %278 = getelementptr inbounds nuw %struct.SwsSlice, ptr %277, i32 0, i32 6
  %279 = getelementptr inbounds [4 x %struct.SwsPlane], ptr %278, i64 0, i64 3
  %280 = getelementptr inbounds nuw %struct.SwsPlane, ptr %279, i32 0, i32 3
  %281 = load ptr, ptr %280, align 8, !tbaa !62
  %282 = load i32, ptr %25, align 4, !tbaa !48
  %283 = sext i32 %282 to i64
  %284 = getelementptr inbounds ptr, ptr %281, i64 %283
  %285 = load ptr, ptr %284, align 8, !tbaa !67
  br label %287

286:                                              ; preds = %232
  br label %287

287:                                              ; preds = %286, %274
  %288 = phi ptr [ %285, %274 ], [ null, %286 ]
  store ptr %288, ptr %269, align 8, !tbaa !67
  %289 = load ptr, ptr %9, align 8, !tbaa !13
  %290 = getelementptr inbounds nuw %struct.VScalerContext, ptr %289, i32 0, i32 4
  %291 = load ptr, ptr %290, align 8, !tbaa !66
  %292 = load ptr, ptr %5, align 8, !tbaa !4
  %293 = load ptr, ptr %14, align 8, !tbaa !64
  %294 = load i32, ptr %7, align 4, !tbaa !48
  %295 = load i32, ptr %12, align 4, !tbaa !48
  %296 = mul nsw i32 %294, %295
  %297 = sext i32 %296 to i64
  %298 = getelementptr inbounds i16, ptr %293, i64 %297
  %299 = load ptr, ptr %26, align 8, !tbaa !63
  %300 = load i32, ptr %12, align 4, !tbaa !48
  %301 = load ptr, ptr %15, align 8, !tbaa !64
  %302 = load i32, ptr %7, align 4, !tbaa !48
  %303 = load i32, ptr %13, align 4, !tbaa !48
  %304 = mul nsw i32 %302, %303
  %305 = sext i32 %304 to i64
  %306 = getelementptr inbounds i16, ptr %301, i64 %305
  %307 = load ptr, ptr %27, align 8, !tbaa !63
  %308 = load ptr, ptr %28, align 8, !tbaa !63
  %309 = load i32, ptr %13, align 4, !tbaa !48
  %310 = load ptr, ptr %29, align 8, !tbaa !63
  %311 = getelementptr inbounds [4 x ptr], ptr %30, i64 0, i64 0
  %312 = load i32, ptr %10, align 4, !tbaa !48
  %313 = load i32, ptr %7, align 4, !tbaa !48
  call void %291(ptr noundef %292, ptr noundef %298, ptr noundef %299, i32 noundef %300, ptr noundef %306, ptr noundef %307, ptr noundef %308, i32 noundef %309, ptr noundef %310, ptr noundef %311, i32 noundef %312, i32 noundef %313)
  call void @llvm.lifetime.end.p0(i64 32, ptr %30) #6
  call void @llvm.lifetime.end.p0(i64 8, ptr %29) #6
  call void @llvm.lifetime.end.p0(i64 8, ptr %28) #6
  call void @llvm.lifetime.end.p0(i64 8, ptr %27) #6
  call void @llvm.lifetime.end.p0(i64 8, ptr %26) #6
  call void @llvm.lifetime.end.p0(i64 4, ptr %25) #6
  call void @llvm.lifetime.end.p0(i64 4, ptr %24) #6
  call void @llvm.lifetime.end.p0(i64 4, ptr %23) #6
  call void @llvm.lifetime.end.p0(i64 4, ptr %22) #6
  call void @llvm.lifetime.end.p0(i64 4, ptr %21) #6
  call void @llvm.lifetime.end.p0(i64 4, ptr %20) #6
  call void @llvm.lifetime.end.p0(i64 4, ptr %19) #6
  call void @llvm.lifetime.end.p0(i64 4, ptr %18) #6
  call void @llvm.lifetime.end.p0(i64 4, ptr %17) #6
  call void @llvm.lifetime.end.p0(i64 4, ptr %16) #6
  call void @llvm.lifetime.end.p0(i64 8, ptr %15) #6
  call void @llvm.lifetime.end.p0(i64 8, ptr %14) #6
  call void @llvm.lifetime.end.p0(i64 4, ptr %13) #6
  call void @llvm.lifetime.end.p0(i64 4, ptr %12) #6
  call void @llvm.lifetime.end.p0(i64 4, ptr %11) #6
  call void @llvm.lifetime.end.p0(i64 4, ptr %10) #6
  call void @llvm.lifetime.end.p0(i64 8, ptr %9) #6
  ret i32 1
}