; Function Attrs: nounwind uwtable
define internal noundef i32 @any_vscale(ptr noundef %0, ptr noundef readonly captures(none) %1, i32 noundef %2, i32 %3) #0 {
  %5 = alloca [4 x ptr], align 16
  %6 = getelementptr inbounds nuw i8, ptr %1, i64 24
  %7 = load ptr, ptr %6, align 8, !tbaa !32
  %8 = getelementptr inbounds nuw i8, ptr %1, i64 8
  %9 = load ptr, ptr %8, align 8, !tbaa !34
  %10 = load i32, ptr %9, align 8, !tbaa !45
  %11 = getelementptr inbounds nuw i8, ptr %9, i64 8
  %12 = load i32, ptr %11, align 8, !tbaa !60
  %13 = ashr i32 %2, %12
  %14 = getelementptr inbounds nuw i8, ptr %7, i64 24
  %15 = load i32, ptr %14, align 8, !tbaa !47
  %16 = getelementptr inbounds nuw i8, ptr %7, i64 48
  %17 = getelementptr inbounds nuw i8, ptr %7, i64 72
  %18 = load i32, ptr %17, align 8, !tbaa !47
  %19 = load ptr, ptr %7, align 8, !tbaa !59
  %20 = load ptr, ptr %16, align 8, !tbaa !59
  %21 = sub nsw i32 1, %15
  %22 = getelementptr inbounds nuw i8, ptr %7, i64 16
  %23 = load ptr, ptr %22, align 8, !tbaa !49
  %24 = sext i32 %2 to i64
  %25 = getelementptr inbounds i32, ptr %23, i64 %24
  %26 = load i32, ptr %25, align 4, !tbaa !50
  %. = tail call i32 @llvm.smax.i32(i32 %21, i32 %26)
  %27 = getelementptr inbounds nuw i8, ptr %7, i64 64
  %28 = load ptr, ptr %27, align 8, !tbaa !49
  %29 = sext i32 %13 to i64
  %30 = getelementptr inbounds i32, ptr %28, i64 %29
  %31 = load i32, ptr %30, align 4, !tbaa !50
  %32 = load ptr, ptr %1, align 8, !tbaa !33
  %33 = getelementptr inbounds nuw i8, ptr %32, i64 28
  %34 = load i32, ptr %33, align 4, !tbaa !51
  %35 = getelementptr inbounds nuw i8, ptr %32, i64 60
  %36 = load i32, ptr %35, align 4, !tbaa !51
  %37 = getelementptr inbounds nuw i8, ptr %32, i64 92
  %38 = load i32, ptr %37, align 4, !tbaa !51
  %39 = getelementptr inbounds nuw i8, ptr %9, i64 28
  %40 = load i32, ptr %39, align 4, !tbaa !51
  %41 = sub nsw i32 %2, %40
  %42 = getelementptr inbounds nuw i8, ptr %9, i64 60
  %43 = load i32, ptr %42, align 4, !tbaa !51
  %44 = sub nsw i32 %13, %43
  %45 = getelementptr inbounds nuw i8, ptr %9, i64 92
  %46 = load i32, ptr %45, align 4, !tbaa !51
  %47 = sub nsw i32 %13, %46
  %48 = getelementptr inbounds nuw i8, ptr %9, i64 124
  %49 = load i32, ptr %48, align 4, !tbaa !51
  %50 = sub nsw i32 %2, %49
  %51 = getelementptr inbounds nuw i8, ptr %32, i64 40
  %52 = load ptr, ptr %51, align 8, !tbaa !54
  %53 = getelementptr inbounds nuw i8, ptr %32, i64 72
  %54 = load ptr, ptr %53, align 8, !tbaa !54
  %55 = getelementptr inbounds nuw i8, ptr %32, i64 104
  %56 = load ptr, ptr %55, align 8, !tbaa !54
  %57 = getelementptr inbounds nuw i8, ptr %1, i64 16
  %58 = load i32, ptr %57, align 8, !tbaa !36
  %.not = icmp eq i32 %58, 0
  br i1 %.not, label %67, label %59

59:                                               ; preds = %4
  %60 = getelementptr inbounds nuw i8, ptr %32, i64 124
  %61 = load i32, ptr %60, align 4, !tbaa !51
  %62 = sub nsw i32 %., %61
  %63 = getelementptr inbounds nuw i8, ptr %32, i64 136
  %64 = load ptr, ptr %63, align 8, !tbaa !54
  %65 = sext i32 %62 to i64
  %66 = getelementptr inbounds ptr, ptr %64, i64 %65
  br label %67

67:                                               ; preds = %4, %59
  %68 = phi ptr [ %66, %59 ], [ null, %4 ]
  call void @llvm.lifetime.start.p0(i64 32, ptr nonnull %5) #5
  %69 = getelementptr inbounds nuw i8, ptr %9, i64 40
  %70 = load ptr, ptr %69, align 8, !tbaa !54
  %71 = sext i32 %41 to i64
  %72 = getelementptr inbounds ptr, ptr %70, i64 %71
  %73 = load ptr, ptr %72, align 8, !tbaa !56
  store ptr %73, ptr %5, align 16, !tbaa !56
  %74 = getelementptr inbounds nuw i8, ptr %5, i64 8
  %75 = getelementptr inbounds nuw i8, ptr %9, i64 72
  %76 = load ptr, ptr %75, align 8, !tbaa !54
  %77 = sext i32 %44 to i64
  %78 = getelementptr inbounds ptr, ptr %76, i64 %77
  %79 = load ptr, ptr %78, align 8, !tbaa !56
  store ptr %79, ptr %74, align 8, !tbaa !56
  %80 = getelementptr inbounds nuw i8, ptr %5, i64 16
  %81 = getelementptr inbounds nuw i8, ptr %9, i64 104
  %82 = load ptr, ptr %81, align 8, !tbaa !54
  %83 = sext i32 %47 to i64
  %84 = getelementptr inbounds ptr, ptr %82, i64 %83
  %85 = load ptr, ptr %84, align 8, !tbaa !56
  store ptr %85, ptr %80, align 16, !tbaa !56
  br i1 %.not, label %92, label %86

86:                                               ; preds = %67
  %87 = getelementptr inbounds nuw i8, ptr %9, i64 136
  %88 = load ptr, ptr %87, align 8, !tbaa !54
  %89 = sext i32 %50 to i64
  %90 = getelementptr inbounds ptr, ptr %88, i64 %89
  %91 = load ptr, ptr %90, align 8, !tbaa !56
  br label %92

92:                                               ; preds = %67, %86
  %93 = phi ptr [ %91, %86 ], [ null, %67 ]
  %94 = sub nsw i32 1, %18
  %95 = tail call i32 @llvm.smax.i32(i32 %94, i32 %31)
  %96 = getelementptr inbounds nuw i8, ptr %5, i64 24
  %97 = sub nsw i32 %95, %38
  %98 = sext i32 %97 to i64
  %99 = getelementptr inbounds ptr, ptr %56, i64 %98
  %100 = sub nsw i32 %95, %36
  %101 = sext i32 %100 to i64
  %102 = getelementptr inbounds ptr, ptr %54, i64 %101
  %103 = sub nsw i32 %., %34
  %104 = sext i32 %103 to i64
  %105 = getelementptr inbounds ptr, ptr %52, i64 %104
  store ptr %93, ptr %96, align 8, !tbaa !56
  %106 = getelementptr inbounds nuw i8, ptr %7, i64 32
  %107 = load ptr, ptr %106, align 8, !tbaa !55
  %108 = mul nsw i32 %15, %2
  %109 = sext i32 %108 to i64
  %110 = getelementptr inbounds i16, ptr %19, i64 %109
  %111 = mul nsw i32 %18, %2
  %112 = sext i32 %111 to i64
  %113 = getelementptr inbounds i16, ptr %20, i64 %112
  call void %107(ptr noundef %0, ptr noundef %110, ptr noundef %105, i32 noundef %15, ptr noundef %113, ptr noundef %102, ptr noundef %99, i32 noundef %18, ptr noundef %68, ptr noundef nonnull %5, i32 noundef %10, i32 noundef %2) #5
  call void @llvm.lifetime.end.p0(i64 32, ptr nonnull %5) #5
  ret i32 1
}